target datalayout = "e-m:e-p270:32:32-p271:32:32-p272:64:64-i64:64-i128:128-f80:128-n8:16:32:64-S128"
target triple = "x86_64-pc-linux-gnu"

%struct.Nwk_Obj_t_ = type { ptr, ptr, ptr, %union.anon, i32, i32, i32, i32, float, float, float, i32, i32, i32, ptr }
%union.anon = type { ptr }
%struct.Nwk_Man_t_ = type { ptr, ptr, ptr, ptr, ptr, [5 x i32], i32, ptr, ptr, ptr, ptr, ptr, i32, i32, i32, i32, i32 }

; Function Attrs: nounwind uwtable
define internal i32 @Abc_MaxInt(i32 noundef %0, i32 noundef %1) #0 {
  %3 = alloca i32, align 4
  %4 = alloca i32, align 4
  store i32 %0, ptr %3, align 4
  store i32 %1, ptr %4, align 4
  %5 = load i32, ptr %3, align 4
  %6 = load i32, ptr %4, align 4
  %7 = icmp sgt i32 %5, %6
  br i1 %7, label %8, label %10

8:                                                ; preds = %2
  %9 = load i32, ptr %3, align 4
  br label %12

10:                                               ; preds = %2
  %11 = load i32, ptr %4, align 4
  br label %12

12:                                               ; preds = %10, %8
  %13 = phi i32 [ %9, %8 ], [ %11, %10 ]
  ret i32 %13
}

; Function Attrs: nounwind uwtable
define internal i32 @Nwk_ObjIsNode(ptr noundef %0) #0 {
  %2 = alloca ptr, align 8
  store ptr %0, ptr %2, align 8
  %3 = load ptr, ptr %2, align 8
  %4 = getelementptr inbounds %struct.Nwk_Obj_t_, ptr %3, i32 0, i32 4
  %5 = load i32, ptr %4, align 8
  %6 = and i32 %5, 7
  %7 = icmp eq i32 %6, 3
  %8 = zext i1 %7 to i32
  ret i32 %8
}

; Function Attrs: nounwind uwtable
define internal ptr @Nwk_ManReallocNode(ptr noundef %0) #0 {
  %2 = alloca ptr, align 8
  %3 = alloca ptr, align 8
  store ptr %0, ptr %2, align 8
  %4 = load ptr, ptr %2, align 8
  %5 = getelementptr inbounds %struct.Nwk_Obj_t_, ptr %4, i32 0, i32 14
  %6 = load ptr, ptr %5, align 8
  store ptr %6, ptr %3, align 8
  %7 = load ptr, ptr %2, align 8
  %8 = getelementptr inbounds %struct.Nwk_Obj_t_, ptr %7, i32 0, i32 0
  %9 = load ptr, ptr %8, align 8
  %10 = getelementptr inbounds %struct.Nwk_Man_t_, ptr %9, i32 0, i32 10
  %11 = load ptr, ptr %10, align 8
  %12 = load ptr, ptr %2, align 8
  %13 = getelementptr inbounds %struct.Nwk_Obj_t_, ptr %12, i32 0, i32 13
  %14 = load i32, ptr %13, align 4
  %15 = mul nsw i32 2, %14
  %16 = sext i32 %15 to i64
  %17 = mul i64 %16, 8
  %18 = trunc i64 %17 to i32
  %19 = call ptr @Aig_MmFlexEntryFetch(ptr noundef %11, i32 noundef %18)
  %20 = load ptr, ptr %2, align 8
  %21 = getelementptr inbounds %struct.Nwk_Obj_t_, ptr %20, i32 0, i32 14
  store ptr %19, ptr %21, align 8
  %22 = load ptr, ptr %2, align 8
  %23 = getelementptr inbounds %struct.Nwk_Obj_t_, ptr %22, i32 0, i32 14
  %24 = load ptr, ptr %23, align 8
  %25 = load ptr, ptr %3, align 8
  %26 = load ptr, ptr %2, align 8
  %27 = getelementptr inbounds %struct.Nwk_Obj_t_, ptr %26, i32 0, i32 13
  %28 = load i32, ptr %27, align 4
  %29 = sext i32 %28 to i64
  %30 = mul i64 %29, 8
  call void @llvm.memmove.p0.p0.i64(ptr align 8 %24, ptr align 8 %25, i64 %30, i1 false)
  %31 = load ptr, ptr %2, align 8
  %32 = getelementptr inbounds %struct.Nwk_Obj_t_, ptr %31, i32 0, i32 13
  %33 = load i32, ptr %32, align 4
  %34 = mul nsw i32 %33, 2
  store i32 %34, ptr %32, align 4
  %35 = load ptr, ptr %2, align 8
  %36 = getelementptr inbounds %struct.Nwk_Obj_t_, ptr %35, i32 0, i32 0
  %37 = load ptr, ptr %36, align 8
  %38 = getelementptr inbounds %struct.Nwk_Man_t_, ptr %37, i32 0, i32 13
  %39 = load i32, ptr %38, align 4
  %40 = add nsw i32 %39, 1
  store i32 %40, ptr %38, align 4
  ret ptr null
}

; Function Attrs: nounwind uwtable
define internal i32 @Nwk_ObjReallocIsNeeded(ptr noundef %0) #0 {
  %2 = alloca ptr, align 8
  store ptr %0, ptr %2, align 8
  %3 = load ptr, ptr %2, align 8
  %4 = getelementptr inbounds %struct.Nwk_Obj_t_, ptr %3, i32 0, i32 11
  %5 = load i32, ptr %4, align 4
  %6 = load ptr, ptr %2, align 8
  %7 = getelementptr inbounds %struct.Nwk_Obj_t_, ptr %6, i32 0, i32 12
  %8 = load i32, ptr %7, align 8
  %9 = add nsw i32 %5, %8
  %10 = load ptr, ptr %2, align 8
  %11 = getelementptr inbounds %struct.Nwk_Obj_t_, ptr %10, i32 0, i32 13
  %12 = load i32, ptr %11, align 4
  %13 = icmp eq i32 %9, %12
  %14 = zext i1 %13 to i32
  ret i32 %14
}

; Function Attrs: nounwind uwtable
define void @Nwk_ObjAddFanin(ptr noundef %0, ptr noundef %1) #0 {
  %3 = alloca ptr, align 8
  %4 = alloca ptr, align 8
  %5 = alloca i32, align 4
  store ptr %0, ptr %3, align 8
  store ptr %1, ptr %4, align 8
  %6 = load ptr, ptr %3, align 8
  %7 = call i32 @Nwk_ObjReallocIsNeeded(ptr noundef %6)
  %8 = icmp ne i32 %7, 0
  br i1 %8, label %9, label %12

9:                                                ; preds = %2
  %10 = load ptr, ptr %3, align 8
  %11 = call ptr @Nwk_ManReallocNode(ptr noundef %10)
  br label %12

12:                                               ; preds = %9, %2
  %13 = load ptr, ptr %4, align 8
  %14 = call i32 @Nwk_ObjReallocIsNeeded(ptr noundef %13)
  %15 = icmp ne i32 %14, 0
  br i1 %15, label %16, label %19

16:                                               ; preds = %12
  %17 = load ptr, ptr %4, align 8
  %18 = call ptr @Nwk_ManReallocNode(ptr noundef %17)
  br label %19

19:                                               ; preds = %16, %12
  %20 = load ptr, ptr %3, align 8
  %21 = getelementptr inbounds %struct.Nwk_Obj_t_, ptr %20, i32 0, i32 11
  %22 = load i32, ptr %21, align 4
  %23 = load ptr, ptr %3, align 8
  %24 = getelementptr inbounds %struct.Nwk_Obj_t_, ptr %23, i32 0, i32 12
  %25 = load i32, ptr %24, align 8
  %26 = add nsw i32 %22, %25
  store i32 %26, ptr %5, align 4
  br label %27

27:                                               ; preds = %48, %19
  %28 = load i32, ptr %5, align 4
  %29 = load ptr, ptr %3, align 8
  %30 = getelementptr inbounds %struct.Nwk_Obj_t_, ptr %29, i32 0, i32 11
  %31 = load i32, ptr %30, align 4
  %32 = icmp sgt i32 %28, %31
  br i1 %32, label %33, label %51

33:                                               ; preds = %27
  %34 = load ptr, ptr %3, align 8
  %35 = getelementptr inbounds %struct.Nwk_Obj_t_, ptr %34, i32 0, i32 14
  %36 = load ptr, ptr %35, align 8
  %37 = load i32, ptr %5, align 4
  %38 = sub nsw i32 %37, 1
  %39 = sext i32 %38 to i64
  %40 = getelementptr inbounds ptr, ptr %36, i64 %39
  %41 = load ptr, ptr %40, align 8
  %42 = load ptr, ptr %3, align 8
  %43 = getelementptr inbounds %struct.Nwk_Obj_t_, ptr %42, i32 0, i32 14
  %44 = load ptr, ptr %43, align 8
  %45 = load i32, ptr %5, align 4
  %46 = sext i32 %45 to i64
  %47 = getelementptr inbounds ptr, ptr %44, i64 %46
  store ptr %41, ptr %47, align 8
  br label %48

48:                                               ; preds = %33
  %49 = load i32, ptr %5, align 4
  %50 = add nsw i32 %49, -1
  store i32 %50, ptr %5, align 4
  br label %27, !llvm.loop !9

51:                                               ; preds = %27
  %52 = load ptr, ptr %4, align 8
  %53 = load ptr, ptr %3, align 8
  %54 = getelementptr inbounds %struct.Nwk_Obj_t_, ptr %53, i32 0, i32 14
  %55 = load ptr, ptr %54, align 8
  %56 = load ptr, ptr %3, align 8
  %57 = getelementptr inbounds %struct.Nwk_Obj_t_, ptr %56, i32 0, i32 11
  %58 = load i32, ptr %57, align 4
  %59 = add nsw i32 %58, 1
  store i32 %59, ptr %57, align 4
  %60 = sext i32 %58 to i64
  %61 = getelementptr inbounds ptr, ptr %55, i64 %60
  store ptr %52, ptr %61, align 8
  %62 = load ptr, ptr %3, align 8
  %63 = load ptr, ptr %4, align 8
  %64 = getelementptr inbounds %struct.Nwk_Obj_t_, ptr %63, i32 0, i32 14
  %65 = load ptr, ptr %64, align 8
  %66 = load ptr, ptr %4, align 8
  %67 = getelementptr inbounds %struct.Nwk_Obj_t_, ptr %66, i32 0, i32 11
  %68 = load i32, ptr %67, align 4
  %69 = load ptr, ptr %4, align 8
  %70 = getelementptr inbounds %struct.Nwk_Obj_t_, ptr %69, i32 0, i32 12
  %71 = load i32, ptr %70, align 8
  %72 = add nsw i32 %71, 1
  store i32 %72, ptr %70, align 8
  %73 = add nsw i32 %68, %71
  %74 = sext i32 %73 to i64
  %75 = getelementptr inbounds ptr, ptr %65, i64 %74
  store ptr %62, ptr %75, align 8
  %76 = load ptr, ptr %3, align 8
  %77 = getelementptr inbounds %struct.Nwk_Obj_t_, ptr %76, i32 0, i32 7
  %78 = load i32, ptr %77, align 4
  %79 = load ptr, ptr %4, align 8
  %80 = getelementptr inbounds %struct.Nwk_Obj_t_, ptr %79, i32 0, i32 7
  %81 = load i32, ptr %80, align 4
  %82 = load ptr, ptr %3, align 8
  %83 = call i32 @Nwk_ObjIsNode(ptr noundef %82)
  %84 = add nsw i32 %81, %83
  %85 = call i32 @Abc_MaxInt(i32 noundef %78, i32 noundef %84)
  %86 = load ptr, ptr %3, align 8
  %87 = getelementptr inbounds %struct.Nwk_Obj_t_, ptr %86, i32 0, i32 7
  store i32 %85, ptr %87, align 4
  ret void
}