; Function Attrs: nounwind uwtable
define void @Nwk_ObjAddFanin(ptr noundef %0, ptr noundef %1) local_unnamed_addr #0 {
  %3 = getelementptr inbounds nuw i8, ptr %0, i64 60
  %4 = load i32, ptr %3, align 4
  %5 = getelementptr inbounds nuw i8, ptr %0, i64 64
  %6 = load i32, ptr %5, align 8
  %7 = add nsw i32 %6, %4
  %8 = getelementptr inbounds nuw i8, ptr %0, i64 68
  %9 = load i32, ptr %8, align 4
  %.not = icmp eq i32 %7, %9
  br i1 %.not, label %10, label %27

10:                                               ; preds = %2
  %11 = getelementptr inbounds nuw i8, ptr %0, i64 72
  %12 = load ptr, ptr %11, align 8
  %13 = load ptr, ptr %0, align 8
  %14 = getelementptr inbounds nuw i8, ptr %13, i64 88
  %15 = load ptr, ptr %14, align 8
  %16 = shl i32 %7, 4
  %17 = tail call ptr @Aig_MmFlexEntryFetch(ptr noundef %15, i32 noundef %16) #11
  store ptr %17, ptr %11, align 8
  %18 = load i32, ptr %8, align 4
  %19 = sext i32 %18 to i64
  %20 = shl nsw i64 %19, 3
  tail call void @llvm.memmove.p0.p0.i64(ptr align 8 %17, ptr align 8 %12, i64 %20, i1 false)
  %21 = load i32, ptr %8, align 4
  %22 = shl nsw i32 %21, 1
  store i32 %22, ptr %8, align 4
  %23 = load ptr, ptr %0, align 8
  %24 = getelementptr inbounds nuw i8, ptr %23, i64 108
  %25 = load i32, ptr %24, align 4
  %26 = add nsw i32 %25, 1
  store i32 %26, ptr %24, align 4
  br label %27

27:                                               ; preds = %10, %2
  %28 = getelementptr inbounds nuw i8, ptr %1, i64 60
  %29 = load i32, ptr %28, align 4
  %30 = getelementptr inbounds nuw i8, ptr %1, i64 64
  %31 = load i32, ptr %30, align 8
  %32 = add nsw i32 %31, %29
  %33 = getelementptr inbounds nuw i8, ptr %1, i64 68
  %34 = load i32, ptr %33, align 4
  %.not25 = icmp eq i32 %32, %34
  br i1 %.not25, label %35, label %52

35:                                               ; preds = %27
  %36 = getelementptr inbounds nuw i8, ptr %1, i64 72
  %37 = load ptr, ptr %36, align 8
  %38 = load ptr, ptr %1, align 8
  %39 = getelementptr inbounds nuw i8, ptr %38, i64 88
  %40 = load ptr, ptr %39, align 8
  %41 = shl i32 %32, 4
  %42 = tail call ptr @Aig_MmFlexEntryFetch(ptr noundef %40, i32 noundef %41) #11
  store ptr %42, ptr %36, align 8
  %43 = load i32, ptr %33, align 4
  %44 = sext i32 %43 to i64
  %45 = shl nsw i64 %44, 3
  tail call void @llvm.memmove.p0.p0.i64(ptr align 8 %42, ptr align 8 %37, i64 %45, i1 false)
  %46 = load i32, ptr %33, align 4
  %47 = shl nsw i32 %46, 1
  store i32 %47, ptr %33, align 4
  %48 = load ptr, ptr %1, align 8
  %49 = getelementptr inbounds nuw i8, ptr %48, i64 108
  %50 = load i32, ptr %49, align 4
  %51 = add nsw i32 %50, 1
  store i32 %51, ptr %49, align 4
  br label %52

52:                                               ; preds = %35, %27
  %53 = load i32, ptr %3, align 4
  %54 = load i32, ptr %5, align 8
  %55 = icmp sgt i32 %54, 0
  br i1 %55, label %.lr.ph, label %.._crit_edge_crit_edge

.._crit_edge_crit_edge:                           ; preds = %52
  %.pre = sext i32 %53 to i64
  br label %._crit_edge

.lr.ph:                                           ; preds = %52
  %56 = add i32 %54, %53
  %57 = getelementptr inbounds nuw i8, ptr %0, i64 72
  %58 = sext i32 %56 to i64
  br label %59

59:                                               ; preds = %.lr.ph, %59
  %indvars.iv = phi i64 [ %58, %.lr.ph ], [ %indvars.iv.next, %59 ]
  %60 = load ptr, ptr %57, align 8
  %61 = getelementptr ptr, ptr %60, i64 %indvars.iv
  %62 = getelementptr i8, ptr %61, i64 -8
  %63 = load ptr, ptr %62, align 8
  store ptr %63, ptr %61, align 8
  %indvars.iv.next = add nsw i64 %indvars.iv, -1
  %64 = load i32, ptr %3, align 4
  %65 = sext i32 %64 to i64
  %66 = icmp sgt i64 %indvars.iv.next, %65
  br i1 %66, label %59, label %._crit_edge, !llvm.loop !9

._crit_edge:                                      ; preds = %59, %.._crit_edge_crit_edge
  %.pre-phi = phi i64 [ %.pre, %.._crit_edge_crit_edge ], [ %65, %59 ]
  %.lcssa = phi i32 [ %53, %.._crit_edge_crit_edge ], [ %64, %59 ]
  %67 = getelementptr inbounds nuw i8, ptr %0, i64 72
  %68 = load ptr, ptr %67, align 8
  %69 = add nsw i32 %.lcssa, 1
  store i32 %69, ptr %3, align 4
  %70 = getelementptr inbounds ptr, ptr %68, i64 %.pre-phi
  store ptr %1, ptr %70, align 8
  %71 = getelementptr inbounds nuw i8, ptr %1, i64 72
  %72 = load ptr, ptr %71, align 8
  %73 = load i32, ptr %28, align 4
  %74 = load i32, ptr %30, align 8
  %75 = add nsw i32 %74, 1
  store i32 %75, ptr %30, align 8
  %76 = add nsw i32 %74, %73
  %77 = sext i32 %76 to i64
  %78 = getelementptr inbounds ptr, ptr %72, i64 %77
  store ptr %0, ptr %78, align 8
  %79 = getelementptr inbounds nuw i8, ptr %0, i64 44
  %80 = load i32, ptr %79, align 4
  %81 = getelementptr inbounds nuw i8, ptr %1, i64 44
  %82 = load i32, ptr %81, align 4
  %83 = getelementptr i8, ptr %0, i64 32
  %.val = load i32, ptr %83, align 8
  %84 = and i32 %.val, 7
  %85 = icmp eq i32 %84, 3
  %86 = zext i1 %85 to i32
  %87 = add nsw i32 %82, %86
  %88 = tail call noundef i32 @llvm.smax.i32(i32 %80, i32 %87)
  store i32 %88, ptr %79, align 4
  ret void
}